; Function Attrs: nounwind uwtable
define internal ptr @_io_StringIO___getstate__(ptr noundef captures(none) %0, ptr readnone captures(none) %1) #0 {
  %3 = getelementptr inbounds nuw i8, ptr %0, i64 64
  %4 = load i8, ptr %3, align 8, !tbaa !14
  %5 = icmp slt i8 %4, 1
  br i1 %5, label %6, label %8

6:                                                ; preds = %2
  %7 = load ptr, ptr @PyExc_ValueError, align 8, !tbaa !37
  tail call void @PyErr_SetString(ptr noundef %7, ptr noundef nonnull @.str.2) #6
  br label %_io_StringIO___getstate___impl.exit

8:                                                ; preds = %2
  %9 = getelementptr inbounds nuw i8, ptr %0, i64 65
  %10 = load i8, ptr %9, align 1, !tbaa !38
  %.not.i22.i = icmp eq i8 %10, 0
  br i1 %.not.i22.i, label %13, label %11

11:                                               ; preds = %8
  %12 = load ptr, ptr @PyExc_ValueError, align 8, !tbaa !37
  tail call void @PyErr_SetString(ptr noundef %12, ptr noundef nonnull @.str.3) #6
  br label %_io_StringIO___getstate___impl.exit

13:                                               ; preds = %8
  %14 = getelementptr inbounds nuw i8, ptr %0, i64 48
  %15 = load i32, ptr %14, align 8, !tbaa !62
  %16 = icmp eq i32 %15, 2
  br i1 %16, label %17, label %19

17:                                               ; preds = %13
  %18 = tail call fastcc ptr @make_intermediate(ptr noundef nonnull %0)
  br label %_io_StringIO_getvalue_impl.exit.i

19:                                               ; preds = %13
  %20 = getelementptr inbounds nuw i8, ptr %0, i64 16
  %21 = load ptr, ptr %20, align 8, !tbaa !21
  %22 = getelementptr inbounds nuw i8, ptr %0, i64 32
  %23 = load i64, ptr %22, align 8, !tbaa !43
  %24 = tail call ptr @PyUnicode_FromKindAndData(i32 noundef 4, ptr noundef %21, i64 noundef %23) #6
  br label %_io_StringIO_getvalue_impl.exit.i

_io_StringIO_getvalue_impl.exit.i:                ; preds = %19, %17
  %.0.i.i = phi ptr [ %18, %17 ], [ %24, %19 ]
  %25 = icmp eq ptr %.0.i.i, null
  br i1 %25, label %_io_StringIO___getstate___impl.exit, label %26

26:                                               ; preds = %_io_StringIO_getvalue_impl.exit.i
  %27 = getelementptr inbounds nuw i8, ptr %0, i64 96
  %28 = load ptr, ptr %27, align 8, !tbaa !36
  %29 = icmp eq ptr %28, null
  br i1 %29, label %30, label %35

30:                                               ; preds = %26
  %31 = load i32, ptr @_Py_NoneStruct, align 8, !tbaa !32
  %32 = icmp slt i32 %31, 0
  br i1 %32, label %_Py_NewRef.exit.i, label %33

33:                                               ; preds = %30
  %34 = add nuw i32 %31, 1
  store i32 %34, ptr @_Py_NoneStruct, align 8, !tbaa !32
  br label %_Py_NewRef.exit.i

35:                                               ; preds = %26
  %36 = tail call ptr @PyDict_Copy(ptr noundef nonnull %28) #6
  %37 = icmp eq ptr %36, null
  br i1 %37, label %38, label %_Py_NewRef.exit.i

38:                                               ; preds = %35
  %39 = load i32, ptr %.0.i.i, align 8, !tbaa !32
  %.not.i19.i = icmp sgt i32 %39, -1
  br i1 %.not.i19.i, label %40, label %_io_StringIO___getstate___impl.exit

40:                                               ; preds = %38
  %41 = add nsw i32 %39, -1
  store i32 %41, ptr %.0.i.i, align 8, !tbaa !32
  %42 = icmp eq i32 %41, 0
  br i1 %42, label %43, label %_io_StringIO___getstate___impl.exit

43:                                               ; preds = %40
  tail call void @_Py_Dealloc(ptr noundef nonnull %.0.i.i) #6
  br label %_io_StringIO___getstate___impl.exit

_Py_NewRef.exit.i:                                ; preds = %35, %33, %30
  %.014.i = phi ptr [ %36, %35 ], [ @_Py_NoneStruct, %30 ], [ @_Py_NoneStruct, %33 ]
  %44 = getelementptr inbounds nuw i8, ptr %0, i64 80
  %45 = load ptr, ptr %44, align 8, !tbaa !33
  %.not.i = icmp eq ptr %45, null
  %spec.select.i = select i1 %.not.i, ptr @_Py_NoneStruct, ptr %45
  %46 = getelementptr inbounds nuw i8, ptr %0, i64 24
  %47 = load i64, ptr %46, align 8, !tbaa !42
  %48 = tail call ptr (ptr, ...) @Py_BuildValue(ptr noundef nonnull @.str.26, ptr noundef nonnull %.0.i.i, ptr noundef nonnull %spec.select.i, i64 noundef %47, ptr noundef nonnull %.014.i) #6
  %49 = load i32, ptr %.0.i.i, align 8, !tbaa !32
  %.not.i.i = icmp sgt i32 %49, -1
  br i1 %.not.i.i, label %50, label %_io_StringIO___getstate___impl.exit

50:                                               ; preds = %_Py_NewRef.exit.i
  %51 = add nsw i32 %49, -1
  store i32 %51, ptr %.0.i.i, align 8, !tbaa !32
  %52 = icmp eq i32 %51, 0
  br i1 %52, label %53, label %_io_StringIO___getstate___impl.exit

53:                                               ; preds = %50
  tail call void @_Py_Dealloc(ptr noundef nonnull %.0.i.i) #6
  br label %_io_StringIO___getstate___impl.exit

_io_StringIO___getstate___impl.exit:              ; preds = %6, %11, %_io_StringIO_getvalue_impl.exit.i, %38, %40, %43, %_Py_NewRef.exit.i, %50, %53
  %.0.i = phi ptr [ null, %_io_StringIO_getvalue_impl.exit.i ], [ null, %38 ], [ null, %40 ], [ null, %43 ], [ %48, %_Py_NewRef.exit.i ], [ %48, %50 ], [ %48, %53 ], [ null, %6 ], [ null, %11 ]
  ret ptr %.0.i
}